; Function Attrs: nounwind uwtable
define internal i32 @sdf_line_to(ptr noundef readonly %0, ptr noundef readonly captures(none) %1) #2 {
  %3 = alloca i32, align 4
  %4 = load ptr, ptr %1, align 8, !tbaa !99
  %.not = icmp eq ptr %0, null
  br i1 %.not, label %27, label %5

5:                                                ; preds = %2
  %6 = getelementptr inbounds nuw i8, ptr %1, i64 8
  %7 = load ptr, ptr %6, align 8, !tbaa !129
  %8 = load i64, ptr %7, align 8, !tbaa !171
  %9 = load i64, ptr %0, align 8, !tbaa !52
  %10 = icmp eq i64 %8, %9
  br i1 %10, label %11, label %17

11:                                               ; preds = %5
  %12 = getelementptr inbounds nuw i8, ptr %7, i64 8
  %13 = load i64, ptr %12, align 8, !tbaa !172
  %14 = getelementptr inbounds nuw i8, ptr %0, i64 8
  %15 = load i64, ptr %14, align 8, !tbaa !53
  %16 = icmp eq i64 %13, %15
  br i1 %16, label %27, label %17

17:                                               ; preds = %5, %11
  call void @llvm.lifetime.start.p0(i64 4, ptr nonnull %3) #11
  store i32 0, ptr %3, align 4, !tbaa !21
  %.not.i = icmp eq ptr %4, null
  br i1 %.not.i, label %sdf_edge_new.exit.thread, label %18

18:                                               ; preds = %17
  %19 = call ptr @ft_mem_qalloc(ptr noundef nonnull %4, i64 noundef 80, ptr noundef nonnull %3) #11
  %20 = load i32, ptr %3, align 4, !tbaa !21
  %.not8.i = icmp eq i32 %20, 0
  br i1 %.not8.i, label %21, label %sdf_edge_new.exit.thread

sdf_edge_new.exit.thread:                         ; preds = %18, %17
  %.ph = phi i32 [ 6, %17 ], [ %20, %18 ]
  call void @llvm.lifetime.end.p0(i64 4, ptr nonnull %3) #11
  br label %27

21:                                               ; preds = %18
  call void @llvm.memset.p0.i64(ptr noundef nonnull align 8 dereferenceable(80) %19, i8 0, i64 80, i1 false)
  call void @llvm.lifetime.end.p0(i64 4, ptr nonnull %3) #11
  %22 = getelementptr inbounds nuw i8, ptr %19, i64 64
  store i32 1, ptr %22, align 8, !tbaa !136
  call void @llvm.memcpy.p0.p0.i64(ptr noundef nonnull align 8 dereferenceable(16) %19, ptr noundef nonnull align 8 dereferenceable(16) %7, i64 16, i1 false), !tbaa.struct !119
  %23 = getelementptr inbounds nuw i8, ptr %19, i64 16
  call void @llvm.memcpy.p0.p0.i64(ptr noundef nonnull align 8 dereferenceable(16) %23, ptr noundef nonnull align 8 dereferenceable(16) %0, i64 16, i1 false), !tbaa.struct !119
  %24 = getelementptr inbounds nuw i8, ptr %7, i64 16
  %25 = load ptr, ptr %24, align 8, !tbaa !135
  %26 = getelementptr inbounds nuw i8, ptr %19, i64 72
  store ptr %25, ptr %26, align 8, !tbaa !146
  store ptr %19, ptr %24, align 8, !tbaa !135
  call void @llvm.memcpy.p0.p0.i64(ptr noundef nonnull align 8 dereferenceable(16) %7, ptr noundef nonnull align 8 dereferenceable(16) %0, i64 16, i1 false), !tbaa.struct !119
  br label %27

27:                                               ; preds = %sdf_edge_new.exit.thread, %2, %11, %21
  %.0 = phi i32 [ 0, %11 ], [ 0, %21 ], [ 6, %2 ], [ %.ph, %sdf_edge_new.exit.thread ]
  ret i32 %.0
}